target datalayout = "e-m:e-p270:32:32-p271:32:32-p272:64:64-i64:64-i128:128-f80:128-n8:16:32:64-S128"
target triple = "x86_64-unknown-linux-gnu"

%"struct.cvc5::internal::Minisat::SimpSolver::ClauseDeleted" = type { ptr }
%"struct.cvc5::internal::Minisat::SimpSolver::ElimLt" = type { ptr }
%"class.cvc5::internal::Minisat::vec.4" = type { ptr, i32, i32 }
%"class.cvc5::internal::Minisat::SimpSolver" = type <{ %"class.cvc5::internal::Minisat::Solver.base", [2 x i8], i32, i32, i32, double, i8, i8, [2 x i8], i32, i32, i32, i32, i8, [3 x i8], %"class.cvc5::internal::Minisat::vec.5", %"class.cvc5::internal::Minisat::vec.8", %"class.cvc5::internal::Minisat::OccLists.11", %"class.cvc5::internal::Minisat::vec.9", %"class.cvc5::internal::Minisat::Heap.13", %"class.cvc5::internal::Minisat::Queue", %"class.cvc5::internal::Minisat::vec.8", %"class.cvc5::internal::Minisat::vec.8", i32, i32, i32, [4 x i8] }>
%"class.cvc5::internal::Minisat::Solver.base" = type <{ %"class.cvc5::internal::EnvObj", ptr, ptr, i32, i32, i32, [4 x i8], %"class.std::unique_ptr", i8, [7 x i8], %"class.cvc5::internal::Minisat::vec", %"class.cvc5::internal::Minisat::vec.2", i8, i8, [6 x i8], %"class.cvc5::internal::Minisat::vec.3", %"class.cvc5::internal::Minisat::vec.4", i32, [4 x i8], double, double, double, double, i8, [3 x i8], i32, i32, i8, i8, [2 x i8], double, i32, [4 x i8], double, double, double, i32, [4 x i8], double, i64, i64, i64, i64, i64, i64, i64, i64, i64, i64, i64, i64, i8, [7 x i8], %"class.cvc5::internal::Minisat::vec.5", %"class.cvc5::internal::Minisat::vec.5", double, %"class.cvc5::internal::Minisat::vec.6", double, %"class.cvc5::internal::Minisat::OccLists", %"class.cvc5::internal::Minisat::vec.3", %"class.cvc5::internal::Minisat::vec.9", %"class.cvc5::internal::Minisat::vec.8", %"class.cvc5::internal::Minisat::vec.8", %"class.cvc5::internal::Minisat::vec.9", %"class.cvc5::internal::Minisat::vec.4", %"class.cvc5::internal::Minisat::vec.9", %"class.cvc5::internal::Minisat::vec.2", %"class.cvc5::internal::Minisat::vec.10", i32, i32, i64, %"class.cvc5::internal::Minisat::vec.4", %"class.cvc5::internal::Minisat::Heap", double, i8, [7 x i8], %"class.cvc5::internal::Minisat::ClauseAllocator", %"class.cvc5::internal::Minisat::vec.2", %"class.cvc5::internal::Minisat::vec.8", %"class.cvc5::internal::Minisat::vec.4", %"class.cvc5::internal::Minisat::vec.4", %"class.cvc5::internal::Minisat::vec.4", double, double, i32, [4 x i8], i64, i64, i8, i8 }>
%"class.cvc5::internal::EnvObj" = type { ptr, ptr }
%"class.std::unique_ptr" = type { %"struct.std::__uniq_ptr_data" }
%"struct.std::__uniq_ptr_data" = type { %"class.std::__uniq_ptr_impl" }
%"class.std::__uniq_ptr_impl" = type { %"class.std::tuple" }
%"class.std::tuple" = type { %"struct.std::_Tuple_impl" }
%"struct.std::_Tuple_impl" = type { %"struct.std::_Head_base.1" }
%"struct.std::_Head_base.1" = type { ptr }
%"class.cvc5::internal::Minisat::vec" = type { ptr, i32, i32 }
%"class.cvc5::internal::Minisat::vec.6" = type { ptr, i32, i32 }
%"class.cvc5::internal::Minisat::OccLists" = type { %"class.cvc5::internal::Minisat::vec.7", %"class.cvc5::internal::Minisat::vec.8", %"class.cvc5::internal::Minisat::vec.4", %"struct.cvc5::internal::Minisat::Solver::WatcherDeleted" }
%"class.cvc5::internal::Minisat::vec.7" = type { ptr, i32, i32 }
%"struct.cvc5::internal::Minisat::Solver::WatcherDeleted" = type { ptr }
%"class.cvc5::internal::Minisat::vec.3" = type { ptr, i32, i32 }
%"class.cvc5::internal::Minisat::vec.10" = type { ptr, i32, i32 }
%"class.cvc5::internal::Minisat::Heap" = type { %"struct.cvc5::internal::Minisat::Solver::VarOrderLt", %"class.cvc5::internal::Minisat::vec.9", %"class.cvc5::internal::Minisat::vec.9" }
%"struct.cvc5::internal::Minisat::Solver::VarOrderLt" = type { ptr }
%"class.cvc5::internal::Minisat::ClauseAllocator" = type { %"class.cvc5::internal::Minisat::RegionAllocator.base", i8, [3 x i8] }
%"class.cvc5::internal::Minisat::RegionAllocator.base" = type <{ ptr, i32, i32, i32 }>
%"class.cvc5::internal::Minisat::vec.2" = type { ptr, i32, i32 }
%"class.cvc5::internal::Minisat::vec.5" = type { ptr, i32, i32 }
%"class.cvc5::internal::Minisat::OccLists.11" = type { %"class.cvc5::internal::Minisat::vec.12", %"class.cvc5::internal::Minisat::vec.8", %"class.cvc5::internal::Minisat::vec.9", %"struct.cvc5::internal::Minisat::SimpSolver::ClauseDeleted" }
%"class.cvc5::internal::Minisat::vec.12" = type { ptr, i32, i32 }
%"class.cvc5::internal::Minisat::vec.9" = type { ptr, i32, i32 }
%"class.cvc5::internal::Minisat::Heap.13" = type { %"struct.cvc5::internal::Minisat::SimpSolver::ElimLt", %"class.cvc5::internal::Minisat::vec.9", %"class.cvc5::internal::Minisat::vec.9" }
%"class.cvc5::internal::Minisat::Queue" = type { %"class.cvc5::internal::Minisat::vec.5", i32, i32 }
%"class.cvc5::internal::Minisat::vec.8" = type { ptr, i32, i32 }
%"class.cvc5::internal::Minisat::Solver" = type <{ %"class.cvc5::internal::EnvObj", ptr, ptr, i32, i32, i32, [4 x i8], %"class.std::unique_ptr", i8, [7 x i8], %"class.cvc5::internal::Minisat::vec", %"class.cvc5::internal::Minisat::vec.2", i8, i8, [6 x i8], %"class.cvc5::internal::Minisat::vec.3", %"class.cvc5::internal::Minisat::vec.4", i32, [4 x i8], double, double, double, double, i8, [3 x i8], i32, i32, i8, i8, [2 x i8], double, i32, [4 x i8], double, double, double, i32, [4 x i8], double, i64, i64, i64, i64, i64, i64, i64, i64, i64, i64, i64, i64, i8, [7 x i8], %"class.cvc5::internal::Minisat::vec.5", %"class.cvc5::internal::Minisat::vec.5", double, %"class.cvc5::internal::Minisat::vec.6", double, %"class.cvc5::internal::Minisat::OccLists", %"class.cvc5::internal::Minisat::vec.3", %"class.cvc5::internal::Minisat::vec.9", %"class.cvc5::internal::Minisat::vec.8", %"class.cvc5::internal::Minisat::vec.8", %"class.cvc5::internal::Minisat::vec.9", %"class.cvc5::internal::Minisat::vec.4", %"class.cvc5::internal::Minisat::vec.9", %"class.cvc5::internal::Minisat::vec.2", %"class.cvc5::internal::Minisat::vec.10", i32, i32, i64, %"class.cvc5::internal::Minisat::vec.4", %"class.cvc5::internal::Minisat::Heap", double, i8, [7 x i8], %"class.cvc5::internal::Minisat::ClauseAllocator", %"class.cvc5::internal::Minisat::vec.2", %"class.cvc5::internal::Minisat::vec.8", %"class.cvc5::internal::Minisat::vec.4", %"class.cvc5::internal::Minisat::vec.4", %"class.cvc5::internal::Minisat::vec.4", double, double, i32, [4 x i8], i64, i64, i8, i8, [6 x i8] }>

; Function Attrs: mustprogress nounwind uwtable
define linkonce_odr hidden noundef nonnull align 8 dereferenceable(16) ptr @_ZN4cvc58internal7Minisat3vecINS2_IjEEEixEi(ptr noundef nonnull align 8 dereferenceable(16) %this, i32 noundef %index) #4 comdat align 2 {
entry:
  %this.addr = alloca ptr, align 8
  %index.addr = alloca i32, align 4
  store ptr %this, ptr %this.addr, align 8
  store i32 %index, ptr %index.addr, align 4
  %this1 = load ptr, ptr %this.addr, align 8
  %data = getelementptr inbounds %"class.cvc5::internal::Minisat::vec.12", ptr %this1, i32 0, i32 0
  %0 = load ptr, ptr %data, align 8
  %1 = load i32, ptr %index.addr, align 4
  %idxprom = sext i32 %1 to i64
  %arrayidx = getelementptr inbounds %"class.cvc5::internal::Minisat::vec.5", ptr %0, i64 %idxprom
  ret ptr %arrayidx
}

; Function Attrs: mustprogress nounwind uwtable
define linkonce_odr hidden noundef i32 @_ZN4cvc58internal7Minisat5toIntEi(i32 noundef %v) #4 comdat {
entry:
  %v.addr = alloca i32, align 4
  store i32 %v, ptr %v.addr, align 4
  %0 = load i32, ptr %v.addr, align 4
  ret i32 %0
}

; Function Attrs: mustprogress nounwind uwtable
define linkonce_odr hidden noundef i32 @_ZNK4cvc58internal7Minisat3vecINS1_6Solver7VarDataEE4sizeEv(ptr noundef nonnull align 8 dereferenceable(16) %this) #4 comdat align 2 {
entry:
  %this.addr = alloca ptr, align 8
  store ptr %this, ptr %this.addr, align 8
  %this1 = load ptr, ptr %this.addr, align 8
  %sz = getelementptr inbounds %"class.cvc5::internal::Minisat::vec.10", ptr %this1, i32 0, i32 1
  %0 = load i32, ptr %sz, align 8
  ret i32 %0
}

; Function Attrs: mustprogress nounwind uwtable
define linkonce_odr hidden noundef nonnull align 4 dereferenceable(4) ptr @_ZN4cvc58internal7Minisat5QueueIjEixEi(ptr noundef nonnull align 8 dereferenceable(24) %this, i32 noundef %index) #4 comdat align 2 {
entry:
  %this.addr = alloca ptr, align 8
  %index.addr = alloca i32, align 4
  store ptr %this, ptr %this.addr, align 8
  store i32 %index, ptr %index.addr, align 4
  %this1 = load ptr, ptr %this.addr, align 8
  %buf = getelementptr inbounds %"class.cvc5::internal::Minisat::Queue", ptr %this1, i32 0, i32 0
  %first = getelementptr inbounds %"class.cvc5::internal::Minisat::Queue", ptr %this1, i32 0, i32 1
  %0 = load i32, ptr %first, align 8
  %1 = load i32, ptr %index.addr, align 4
  %add = add nsw i32 %0, %1
  %buf2 = getelementptr inbounds %"class.cvc5::internal::Minisat::Queue", ptr %this1, i32 0, i32 0
  %call = call noundef i32 @_ZNK4cvc58internal7Minisat3vecIjE4sizeEv(ptr noundef nonnull align 8 dereferenceable(16) %buf2)
  %rem = srem i32 %add, %call
  %call3 = call noundef nonnull align 4 dereferenceable(4) ptr @_ZN4cvc58internal7Minisat3vecIjEixEi(ptr noundef nonnull align 8 dereferenceable(16) %buf, i32 noundef %rem)
  ret ptr %call3
}

; Function Attrs: mustprogress nounwind uwtable
define linkonce_odr hidden noundef i32 @_ZNK4cvc58internal7Minisat5QueueIjE4sizeEv(ptr noundef nonnull align 8 dereferenceable(24) %this) #4 comdat align 2 {
entry:
  %this.addr = alloca ptr, align 8
  store ptr %this, ptr %this.addr, align 8
  %this1 = load ptr, ptr %this.addr, align 8
  %end = getelementptr inbounds %"class.cvc5::internal::Minisat::Queue", ptr %this1, i32 0, i32 2
  %0 = load i32, ptr %end, align 4
  %first = getelementptr inbounds %"class.cvc5::internal::Minisat::Queue", ptr %this1, i32 0, i32 1
  %1 = load i32, ptr %first, align 8
  %cmp = icmp sge i32 %0, %1
  br i1 %cmp, label %cond.true, label %cond.false

cond.true:                                        ; preds = %entry
  %end2 = getelementptr inbounds %"class.cvc5::internal::Minisat::Queue", ptr %this1, i32 0, i32 2
  %2 = load i32, ptr %end2, align 4
  %first3 = getelementptr inbounds %"class.cvc5::internal::Minisat::Queue", ptr %this1, i32 0, i32 1
  %3 = load i32, ptr %first3, align 8
  %sub = sub nsw i32 %2, %3
  br label %cond.end

cond.false:                                       ; preds = %entry
  %end4 = getelementptr inbounds %"class.cvc5::internal::Minisat::Queue", ptr %this1, i32 0, i32 2
  %4 = load i32, ptr %end4, align 4
  %first5 = getelementptr inbounds %"class.cvc5::internal::Minisat::Queue", ptr %this1, i32 0, i32 1
  %5 = load i32, ptr %first5, align 8
  %sub6 = sub nsw i32 %4, %5
  %buf = getelementptr inbounds %"class.cvc5::internal::Minisat::Queue", ptr %this1, i32 0, i32 0
  %call = call noundef i32 @_ZNK4cvc58internal7Minisat3vecIjE4sizeEv(ptr noundef nonnull align 8 dereferenceable(16) %buf)
  %add = add nsw i32 %sub6, %call
  br label %cond.end

cond.end:                                         ; preds = %cond.false, %cond.true
  %cond = phi i32 [ %sub, %cond.true ], [ %add, %cond.false ]
  ret i32 %cond
}

; Function Attrs: mustprogress nounwind uwtable
define linkonce_odr hidden noundef nonnull align 4 dereferenceable(4) ptr @_ZN4cvc58internal7Minisat3vecIjEixEi(ptr noundef nonnull align 8 dereferenceable(16) %this, i32 noundef %index) #4 comdat align 2 {
entry:
  %this.addr = alloca ptr, align 8
  %index.addr = alloca i32, align 4
  store ptr %this, ptr %this.addr, align 8
  store i32 %index, ptr %index.addr, align 4
  %this1 = load ptr, ptr %this.addr, align 8
  %data = getelementptr inbounds %"class.cvc5::internal::Minisat::vec.5", ptr %this1, i32 0, i32 0
  %0 = load ptr, ptr %data, align 8
  %1 = load i32, ptr %index.addr, align 4
  %idxprom = sext i32 %1 to i64
  %arrayidx = getelementptr inbounds i32, ptr %0, i64 %idxprom
  ret ptr %arrayidx
}

; Function Attrs: mustprogress nounwind uwtable
define linkonce_odr hidden noundef i32 @_ZNK4cvc58internal7Minisat3vecIjE4sizeEv(ptr noundef nonnull align 8 dereferenceable(16) %this) #4 comdat align 2 {
entry:
  %this.addr = alloca ptr, align 8
  store ptr %this, ptr %this.addr, align 8
  %this1 = load ptr, ptr %this.addr, align 8
  %sz = getelementptr inbounds %"class.cvc5::internal::Minisat::vec.5", ptr %this1, i32 0, i32 1
  %0 = load i32, ptr %sz, align 8
  ret i32 %0
}

; Function Attrs: mustprogress uwtable
define linkonce_odr hidden noundef nonnull align 8 dereferenceable(16) ptr @_ZN4cvc58internal7Minisat8OccListsIiNS1_3vecIjEENS1_10SimpSolver13ClauseDeletedEEixERKi(ptr noundef nonnull align 8 dereferenceable(56) %this, ptr noundef nonnull align 4 dereferenceable(4) %idx) #5 comdat align 2 {
entry:
  %this.addr = alloca ptr, align 8
  %idx.addr = alloca ptr, align 8
  store ptr %this, ptr %this.addr, align 8
  store ptr %idx, ptr %idx.addr, align 8
  %this1 = load ptr, ptr %this.addr, align 8
  %occs = getelementptr inbounds %"class.cvc5::internal::Minisat::OccLists.11", ptr %this1, i32 0, i32 0
  %0 = load ptr, ptr %idx.addr, align 8
  %1 = load i32, ptr %0, align 4
  %call = call noundef i32 @_ZN4cvc58internal7Minisat5toIntEi(i32 noundef %1)
  %call2 = call noundef nonnull align 8 dereferenceable(16) ptr @_ZN4cvc58internal7Minisat3vecINS2_IjEEEixEi(ptr noundef nonnull align 8 dereferenceable(16) %occs, i32 noundef %call)
  ret ptr %call2
}

; Function Attrs: mustprogress uwtable
define linkonce_odr hidden noundef i32 @_ZNK4cvc58internal7Minisat6Solver5nVarsEv(ptr noundef nonnull align 8 dereferenceable(850) %this) #5 comdat align 2 {
entry:
  %this.addr = alloca ptr, align 8
  store ptr %this, ptr %this.addr, align 8
  %this1 = load ptr, ptr %this.addr, align 8
  %vardata = getelementptr inbounds %"class.cvc5::internal::Minisat::Solver", ptr %this1, i32 0, i32 67
  %call = call noundef i32 @_ZNK4cvc58internal7Minisat3vecINS1_6Solver7VarDataEE4sizeEv(ptr noundef nonnull align 8 dereferenceable(16) %vardata)
  ret i32 %call
}

; Function Attrs: mustprogress uwtable
define hidden void @_ZN4cvc58internal7Minisat10SimpSolver8relocAllERNS1_15ClauseAllocatorE(ptr noundef nonnull align 8 dereferenceable(1108) %this, ptr noundef nonnull align 8 dereferenceable(21) %to) #5 align 2 {
entry:
  %this.addr = alloca ptr, align 8
  %to.addr = alloca ptr, align 8
  %i = alloca i32, align 4
  %cs = alloca ptr, align 8
  %j = alloca i32, align 4
  %i11 = alloca i32, align 4
  store ptr %this, ptr %this.addr, align 8
  store ptr %to, ptr %to.addr, align 8
  %this1 = load ptr, ptr %this.addr, align 8
  %use_simplification = getelementptr inbounds %"class.cvc5::internal::Minisat::SimpSolver", ptr %this1, i32 0, i32 13
  %0 = load i8, ptr %use_simplification, align 4
  %tobool = trunc i8 %0 to i1
  br i1 %tobool, label %if.end, label %if.then

if.then:                                          ; preds = %entry
  br label %return

if.end:                                           ; preds = %entry
  store i32 0, ptr %i, align 4
  br label %for.cond

for.cond:                                         ; preds = %for.inc8, %if.end
  %1 = load i32, ptr %i, align 4
  %call = call noundef i32 @_ZNK4cvc58internal7Minisat6Solver5nVarsEv(ptr noundef nonnull align 8 dereferenceable(850) %this1)
  %cmp = icmp slt i32 %1, %call
  br i1 %cmp, label %for.body, label %for.end10

for.body:                                         ; preds = %for.cond
  %occurs = getelementptr inbounds %"class.cvc5::internal::Minisat::SimpSolver", ptr %this1, i32 0, i32 17
  %call2 = call noundef nonnull align 8 dereferenceable(16) ptr @_ZN4cvc58internal7Minisat8OccListsIiNS1_3vecIjEENS1_10SimpSolver13ClauseDeletedEEixERKi(ptr noundef nonnull align 8 dereferenceable(56) %occurs, ptr noundef nonnull align 4 dereferenceable(4) %i)
  store ptr %call2, ptr %cs, align 8
  store i32 0, ptr %j, align 4
  br label %for.cond3

for.cond3:                                        ; preds = %for.inc, %for.body
  %2 = load i32, ptr %j, align 4
  %3 = load ptr, ptr %cs, align 8
  %call4 = call noundef i32 @_ZNK4cvc58internal7Minisat3vecIjE4sizeEv(ptr noundef nonnull align 8 dereferenceable(16) %3)
  %cmp5 = icmp slt i32 %2, %call4
  br i1 %cmp5, label %for.body6, label %for.end

for.body6:                                        ; preds = %for.cond3
  %ca = getelementptr inbounds %"class.cvc5::internal::Minisat::Solver", ptr %this1, i32 0, i32 76
  %4 = load ptr, ptr %cs, align 8
  %5 = load i32, ptr %j, align 4
  %call7 = call noundef nonnull align 4 dereferenceable(4) ptr @_ZN4cvc58internal7Minisat3vecIjEixEi(ptr noundef nonnull align 8 dereferenceable(16) %4, i32 noundef %5)
  %6 = load ptr, ptr %to.addr, align 8
  call void @_ZN4cvc58internal7Minisat15ClauseAllocator5relocERjRS2_(ptr noundef nonnull align 8 dereferenceable(21) %ca, ptr noundef nonnull align 4 dereferenceable(4) %call7, ptr noundef nonnull align 8 dereferenceable(21) %6)
  br label %for.inc

for.inc:                                          ; preds = %for.body6
  %7 = load i32, ptr %j, align 4
  %inc = add nsw i32 %7, 1
  store i32 %inc, ptr %j, align 4
  br label %for.cond3, !llvm.loop !60

for.end:                                          ; preds = %for.cond3
  br label %for.inc8

for.inc8:                                         ; preds = %for.end
  %8 = load i32, ptr %i, align 4
  %inc9 = add nsw i32 %8, 1
  store i32 %inc9, ptr %i, align 4
  br label %for.cond, !llvm.loop !61

for.end10:                                        ; preds = %for.cond
  store i32 0, ptr %i11, align 4
  br label %for.cond12

for.cond12:                                       ; preds = %for.inc19, %for.end10
  %9 = load i32, ptr %i11, align 4
  %subsumption_queue = getelementptr inbounds %"class.cvc5::internal::Minisat::SimpSolver", ptr %this1, i32 0, i32 20
  %call13 = call noundef i32 @_ZNK4cvc58internal7Minisat5QueueIjE4sizeEv(ptr noundef nonnull align 8 dereferenceable(24) %subsumption_queue)
  %cmp14 = icmp slt i32 %9, %call13
  br i1 %cmp14, label %for.body15, label %for.end21

for.body15:                                       ; preds = %for.cond12
  %ca16 = getelementptr inbounds %"class.cvc5::internal::Minisat::Solver", ptr %this1, i32 0, i32 76
  %subsumption_queue17 = getelementptr inbounds %"class.cvc5::internal::Minisat::SimpSolver", ptr %this1, i32 0, i32 20
  %10 = load i32, ptr %i11, align 4
  %call18 = call noundef nonnull align 4 dereferenceable(4) ptr @_ZN4cvc58internal7Minisat5QueueIjEixEi(ptr noundef nonnull align 8 dereferenceable(24) %subsumption_queue17, i32 noundef %10)
  %11 = load ptr, ptr %to.addr, align 8
  call void @_ZN4cvc58internal7Minisat15ClauseAllocator5relocERjRS2_(ptr noundef nonnull align 8 dereferenceable(21) %ca16, ptr noundef nonnull align 4 dereferenceable(4) %call18, ptr noundef nonnull align 8 dereferenceable(21) %11)
  br label %for.inc19

for.inc19:                                        ; preds = %for.body15
  %12 = load i32, ptr %i11, align 4
  %inc20 = add nsw i32 %12, 1
  store i32 %inc20, ptr %i11, align 4
  br label %for.cond12, !llvm.loop !62

for.end21:                                        ; preds = %for.cond12
  %ca22 = getelementptr inbounds %"class.cvc5::internal::Minisat::Solver", ptr %this1, i32 0, i32 76
  %bwdsub_tmpunit = getelementptr inbounds %"class.cvc5::internal::Minisat::SimpSolver", ptr %this1, i32 0, i32 25
  %13 = load ptr, ptr %to.addr, align 8
  call void @_ZN4cvc58internal7Minisat15ClauseAllocator5relocERjRS2_(ptr noundef nonnull align 8 dereferenceable(21) %ca22, ptr noundef nonnull align 4 dereferenceable(4) %bwdsub_tmpunit, ptr noundef nonnull align 8 dereferenceable(21) %13)
  br label %return

return:                                           ; preds = %for.end21, %if.then
  ret void
}