; Function Attrs: mustprogress uwtable
define hidden void @_ZN4cvc58internal7Minisat10SimpSolver8relocAllERNS1_15ClauseAllocatorE(ptr noundef nonnull align 8 dereferenceable(1108) %this, ptr noundef nonnull align 8 dereferenceable(21) %to) local_unnamed_addr #4 align 2 {
entry:
  %use_simplification = getelementptr inbounds i8, ptr %this, i64 892
  %0 = load i8, ptr %use_simplification, align 4
  %1 = and i8 %0, 1
  %tobool.not = icmp eq i8 %1, 0
  br i1 %tobool.not, label %return, label %for.cond.preheader

for.cond.preheader:                               ; preds = %entry
  %sz.i.i = getelementptr inbounds i8, ptr %this, i64 608
  %2 = load i32, ptr %sz.i.i, align 8
  %cmp17 = icmp sgt i32 %2, 0
  br i1 %cmp17, label %for.body.lr.ph, label %for.cond12.preheader

for.body.lr.ph:                                   ; preds = %for.cond.preheader
  %occurs = getelementptr inbounds i8, ptr %this, i64 928
  %ca = getelementptr inbounds i8, ptr %this, i64 704
  br label %for.body

for.cond12.preheader:                             ; preds = %for.inc8, %for.cond.preheader
  %end.i = getelementptr inbounds i8, ptr %this, i64 1060
  %first.i = getelementptr inbounds i8, ptr %this, i64 1056
  %sz.i.i8 = getelementptr inbounds i8, ptr %this, i64 1048
  %3 = load i32, ptr %end.i, align 4
  %4 = load i32, ptr %first.i, align 8
  %cmp.not.i19 = icmp slt i32 %3, %4
  %sub.i21 = sub i32 %3, %4
  %5 = load i32, ptr %sz.i.i8, align 8
  %add.i22 = select i1 %cmp.not.i19, i32 %5, i32 0
  %cond.i23 = add nsw i32 %sub.i21, %add.i22
  %cmp1424 = icmp sgt i32 %cond.i23, 0
  br i1 %cmp1424, label %for.body15.lr.ph, label %for.end21

for.body15.lr.ph:                                 ; preds = %for.cond12.preheader
  %subsumption_queue = getelementptr inbounds i8, ptr %this, i64 1040
  %ca16 = getelementptr inbounds i8, ptr %this, i64 704
  br label %for.body15

for.body:                                         ; preds = %for.body.lr.ph, %for.inc8
  %6 = phi i32 [ %2, %for.body.lr.ph ], [ %12, %for.inc8 ]
  %indvars.iv27 = phi i64 [ 0, %for.body.lr.ph ], [ %indvars.iv.next28, %for.inc8 ]
  %7 = load ptr, ptr %occurs, align 8
  %arrayidx.i.i = getelementptr inbounds %"class.cvc5::internal::Minisat::vec.5", ptr %7, i64 %indvars.iv27
  %sz.i = getelementptr inbounds i8, ptr %arrayidx.i.i, i64 8
  %8 = load i32, ptr %sz.i, align 8
  %cmp515 = icmp sgt i32 %8, 0
  br i1 %cmp515, label %for.body6, label %for.inc8

for.body6:                                        ; preds = %for.body, %for.body6
  %indvars.iv = phi i64 [ %indvars.iv.next, %for.body6 ], [ 0, %for.body ]
  %9 = load ptr, ptr %arrayidx.i.i, align 8
  %arrayidx.i = getelementptr inbounds i32, ptr %9, i64 %indvars.iv
  tail call void @_ZN4cvc58internal7Minisat15ClauseAllocator5relocERjRS2_(ptr noundef nonnull align 8 dereferenceable(21) %ca, ptr noundef nonnull align 4 dereferenceable(4) %arrayidx.i, ptr noundef nonnull align 8 dereferenceable(21) %to)
  %indvars.iv.next = add nuw nsw i64 %indvars.iv, 1
  %10 = load i32, ptr %sz.i, align 8
  %11 = sext i32 %10 to i64
  %cmp5 = icmp slt i64 %indvars.iv.next, %11
  br i1 %cmp5, label %for.body6, label %for.inc8.loopexit, !llvm.loop !57

for.inc8.loopexit:                                ; preds = %for.body6
  %.pre = load i32, ptr %sz.i.i, align 8
  br label %for.inc8

for.inc8:                                         ; preds = %for.inc8.loopexit, %for.body
  %12 = phi i32 [ %.pre, %for.inc8.loopexit ], [ %6, %for.body ]
  %indvars.iv.next28 = add nuw nsw i64 %indvars.iv27, 1
  %13 = sext i32 %12 to i64
  %cmp = icmp slt i64 %indvars.iv.next28, %13
  br i1 %cmp, label %for.body, label %for.cond12.preheader, !llvm.loop !58

for.body15:                                       ; preds = %for.body15.lr.ph, %for.body15
  %14 = phi i32 [ %5, %for.body15.lr.ph ], [ %19, %for.body15 ]
  %15 = phi i32 [ %4, %for.body15.lr.ph ], [ %18, %for.body15 ]
  %i11.025 = phi i32 [ 0, %for.body15.lr.ph ], [ %inc20, %for.body15 ]
  %add.i10 = add nsw i32 %15, %i11.025
  %rem.i = srem i32 %add.i10, %14
  %16 = load ptr, ptr %subsumption_queue, align 8
  %idxprom.i.i12 = sext i32 %rem.i to i64
  %arrayidx.i.i13 = getelementptr inbounds i32, ptr %16, i64 %idxprom.i.i12
  tail call void @_ZN4cvc58internal7Minisat15ClauseAllocator5relocERjRS2_(ptr noundef nonnull align 8 dereferenceable(21) %ca16, ptr noundef nonnull align 4 dereferenceable(4) %arrayidx.i.i13, ptr noundef nonnull align 8 dereferenceable(21) %to)
  %inc20 = add nuw nsw i32 %i11.025, 1
  %17 = load i32, ptr %end.i, align 4
  %18 = load i32, ptr %first.i, align 8
  %cmp.not.i = icmp slt i32 %17, %18
  %sub.i = sub i32 %17, %18
  %19 = load i32, ptr %sz.i.i8, align 8
  %add.i = select i1 %cmp.not.i, i32 %19, i32 0
  %cond.i = add nsw i32 %sub.i, %add.i
  %cmp14 = icmp slt i32 %inc20, %cond.i
  br i1 %cmp14, label %for.body15, label %for.end21, !llvm.loop !59

for.end21:                                        ; preds = %for.body15, %for.cond12.preheader
  %ca22 = getelementptr inbounds i8, ptr %this, i64 704
  %bwdsub_tmpunit = getelementptr inbounds i8, ptr %this, i64 1104
  tail call void @_ZN4cvc58internal7Minisat15ClauseAllocator5relocERjRS2_(ptr noundef nonnull align 8 dereferenceable(21) %ca22, ptr noundef nonnull align 4 dereferenceable(4) %bwdsub_tmpunit, ptr noundef nonnull align 8 dereferenceable(21) %to)
  br label %return

return:                                           ; preds = %entry, %for.end21
  ret void
}